; ModuleID = '14/1410.c'
source_filename = "14/1410.c"
target datalayout = "e-m:e-p270:32:32-p271:32:32-p272:64:64-i64:64-f80:128-n8:16:32:64-S128"
target triple = "x86_64-pc-linux-gnu"

%struct.stu = type { i32, i32, i32, i64 }

@.str = private unnamed_addr constant [3 x i8] c"%d\00", align 1
@.str.1 = private unnamed_addr constant [9 x i8] c"%d %d %d\00", align 1
@.str.2 = private unnamed_addr constant [8 x i8] c"%d %ld\0A\00", align 1

; Function Attrs: noinline nounwind uwtable
define dso_local i32 @main() #0 {
  %1 = alloca i32, align 4
  %2 = alloca i32, align 4
  %3 = alloca i32, align 4
  %4 = alloca i32, align 4
  %5 = alloca i32, align 4
  %6 = alloca i32, align 4
  %7 = alloca i32, align 4
  %8 = alloca %struct.stu*, align 8
  %9 = alloca %struct.stu*, align 8
  store i32 0, i32* %1, align 4
  store i32 0, i32* %6, align 4
  %10 = call i32 (i8*, ...) @__isoc99_scanf(i8* getelementptr inbounds ([3 x i8], [3 x i8]* @.str, i64 0, i64 0), i32* %2)
  %11 = call noalias i8* @malloc(i64 24000000) #3
  %12 = bitcast i8* %11 to %struct.stu*
  store %struct.stu* %12, %struct.stu** %8, align 8
  %13 = load %struct.stu*, %struct.stu** %8, align 8
  store %struct.stu* %13, %struct.stu** %9, align 8
  store i32 0, i32* %3, align 4
  br label %14

14:                                               ; preds = %54, %0
  %15 = load i32, i32* %3, align 4
  %16 = load i32, i32* %2, align 4
  %17 = icmp slt i32 %15, %16
  br i1 %17, label %18, label %57

18:                                               ; preds = %14
  %19 = load %struct.stu*, %struct.stu** %8, align 8
  %20 = load i32, i32* %3, align 4
  %21 = sext i32 %20 to i64
  %22 = getelementptr inbounds %struct.stu, %struct.stu* %19, i64 %21
  %23 = getelementptr inbounds %struct.stu, %struct.stu* %22, i32 0, i32 0
  %24 = load %struct.stu*, %struct.stu** %8, align 8
  %25 = load i32, i32* %3, align 4
  %26 = sext i32 %25 to i64
  %27 = getelementptr inbounds %struct.stu, %struct.stu* %24, i64 %26
  %28 = getelementptr inbounds %struct.stu, %struct.stu* %27, i32 0, i32 1
  %29 = load %struct.stu*, %struct.stu** %8, align 8
  %30 = load i32, i32* %3, align 4
  %31 = sext i32 %30 to i64
  %32 = getelementptr inbounds %struct.stu, %struct.stu* %29, i64 %31
  %33 = getelementptr inbounds %struct.stu, %struct.stu* %32, i32 0, i32 2
  %34 = call i32 (i8*, ...) @__isoc99_scanf(i8* getelementptr inbounds ([9 x i8], [9 x i8]* @.str.1, i64 0, i64 0), i32* %23, i32* %28, i32* %33)
  %35 = load %struct.stu*, %struct.stu** %8, align 8
  %36 = load i32, i32* %3, align 4
  %37 = sext i32 %36 to i64
  %38 = getelementptr inbounds %struct.stu, %struct.stu* %35, i64 %37
  %39 = getelementptr inbounds %struct.stu, %struct.stu* %38, i32 0, i32 1
  %40 = load i32, i32* %39, align 4
  %41 = load %struct.stu*, %struct.stu** %8, align 8
  %42 = load i32, i32* %3, align 4
  %43 = sext i32 %42 to i64
  %44 = getelementptr inbounds %struct.stu, %struct.stu* %41, i64 %43
  %45 = getelementptr inbounds %struct.stu, %struct.stu* %44, i32 0, i32 2
  %46 = load i32, i32* %45, align 8
  %47 = add nsw i32 %40, %46
  %48 = sext i32 %47 to i64
  %49 = load %struct.stu*, %struct.stu** %8, align 8
  %50 = load i32, i32* %3, align 4
  %51 = sext i32 %50 to i64
  %52 = getelementptr inbounds %struct.stu, %struct.stu* %49, i64 %51
  %53 = getelementptr inbounds %struct.stu, %struct.stu* %52, i32 0, i32 3
  store i64 %48, i64* %53, align 8
  br label %54

54:                                               ; preds = %18
  %55 = load i32, i32* %3, align 4
  %56 = add nsw i32 %55, 1
  store i32 %56, i32* %3, align 4
  br label %14

57:                                               ; preds = %14
  br label %58

58:                                               ; preds = %132, %57
  store i32 0, i32* %7, align 4
  store i32 0, i32* %4, align 4
  br label %59

59:                                               ; preds = %82, %58
  %60 = load i32, i32* %4, align 4
  %61 = load i32, i32* %2, align 4
  %62 = icmp slt i32 %60, %61
  br i1 %62, label %63, label %85

63:                                               ; preds = %59
  %64 = load %struct.stu*, %struct.stu** %8, align 8
  %65 = load i32, i32* %4, align 4
  %66 = sext i32 %65 to i64
  %67 = getelementptr inbounds %struct.stu, %struct.stu* %64, i64 %66
  %68 = getelementptr inbounds %struct.stu, %struct.stu* %67, i32 0, i32 3
  %69 = load i64, i64* %68, align 8
  %70 = load i32, i32* %7, align 4
  %71 = sext i32 %70 to i64
  %72 = icmp sgt i64 %69, %71
  br i1 %72, label %73, label %81

73:                                               ; preds = %63
  %74 = load %struct.stu*, %struct.stu** %8, align 8
  %75 = load i32, i32* %4, align 4
  %76 = sext i32 %75 to i64
  %77 = getelementptr inbounds %struct.stu, %struct.stu* %74, i64 %76
  %78 = getelementptr inbounds %struct.stu, %struct.stu* %77, i32 0, i32 3
  %79 = load i64, i64* %78, align 8
  %80 = trunc i64 %79 to i32
  store i32 %80, i32* %7, align 4
  br label %81

81:                                               ; preds = %73, %63
  br label %82

82:                                               ; preds = %81
  %83 = load i32, i32* %4, align 4
  %84 = add nsw i32 %83, 1
  store i32 %84, i32* %4, align 4
  br label %59

85:                                               ; preds = %59
  store i32 0, i32* %5, align 4
  br label %86

86:                                               ; preds = %126, %85
  %87 = load i32, i32* %5, align 4
  %88 = load i32, i32* %2, align 4
  %89 = icmp slt i32 %87, %88
  br i1 %89, label %90, label %129

90:                                               ; preds = %86
  %91 = load i32, i32* %7, align 4
  %92 = sext i32 %91 to i64
  %93 = load %struct.stu*, %struct.stu** %8, align 8
  %94 = load i32, i32* %5, align 4
  %95 = sext i32 %94 to i64
  %96 = getelementptr inbounds %struct.stu, %struct.stu* %93, i64 %95
  %97 = getelementptr inbounds %struct.stu, %struct.stu* %96, i32 0, i32 3
  %98 = load i64, i64* %97, align 8
  %99 = icmp eq i64 %92, %98
  br i1 %99, label %100, label %125

100:                                              ; preds = %90
  %101 = load i32, i32* %5, align 4
  %102 = load i32, i32* %2, align 4
  %103 = icmp slt i32 %101, %102
  br i1 %103, label %104, label %125

104:                                              ; preds = %100
  %105 = load %struct.stu*, %struct.stu** %8, align 8
  %106 = load i32, i32* %5, align 4
  %107 = sext i32 %106 to i64
  %108 = getelementptr inbounds %struct.stu, %struct.stu* %105, i64 %107
  %109 = getelementptr inbounds %struct.stu, %struct.stu* %108, i32 0, i32 0
  %110 = load i32, i32* %109, align 8
  %111 = load %struct.stu*, %struct.stu** %8, align 8
  %112 = load i32, i32* %5, align 4
  %113 = sext i32 %112 to i64
  %114 = getelementptr inbounds %struct.stu, %struct.stu* %111, i64 %113
  %115 = getelementptr inbounds %struct.stu, %struct.stu* %114, i32 0, i32 3
  %116 = load i64, i64* %115, align 8
  %117 = call i32 (i8*, ...) @printf(i8* getelementptr inbounds ([8 x i8], [8 x i8]* @.str.2, i64 0, i64 0), i32 %110, i64 %116)
  %118 = load i32, i32* %6, align 4
  %119 = add nsw i32 %118, 1
  store i32 %119, i32* %6, align 4
  %120 = load %struct.stu*, %struct.stu** %8, align 8
  %121 = load i32, i32* %5, align 4
  %122 = sext i32 %121 to i64
  %123 = getelementptr inbounds %struct.stu, %struct.stu* %120, i64 %122
  %124 = getelementptr inbounds %struct.stu, %struct.stu* %123, i32 0, i32 3
  store i64 0, i64* %124, align 8
  br label %129

125:                                              ; preds = %100, %90
  br label %126

126:                                              ; preds = %125
  %127 = load i32, i32* %5, align 4
  %128 = add nsw i32 %127, 1
  store i32 %128, i32* %5, align 4
  br label %86

129:                                              ; preds = %104, %86
  %130 = load i32, i32* %6, align 4
  %131 = icmp slt i32 %130, 3
  br i1 %131, label %132, label %133

132:                                              ; preds = %129
  br label %58

133:                                              ; preds = %129
  %134 = load i32, i32* %1, align 4
  ret i32 %134
}

declare dso_local i32 @__isoc99_scanf(i8*, ...) #1

; Function Attrs: nounwind
declare dso_local noalias i8* @malloc(i64) #2

declare dso_local i32 @printf(i8*, ...) #1


!llvm.module.flags = !{!0}
!llvm.ident = !{!1}

!0 = !{i32 1, !"wchar_size", i32 4}
!1 = !{!"clang version 10.0.0-4ubuntu1 "}
